target datalayout = "e-m:e-p270:32:32-p271:32:32-p272:64:64-i64:64-i128:128-f80:128-n8:16:32:64-S128"
target triple = "x86_64-pc-linux-gnu"

@_ZN23java_lang_ref_Reference12_next_offsetE = external global i32, align 4
@_ZN23java_lang_ref_Reference16_referent_offsetE = external global i32, align 4

; Function Attrs: mustprogress nounwind uwtable
define linkonce_odr hidden void @_ZN23java_lang_ref_Reference18clear_referent_rawEP7oopDesc(ptr noundef %0) #1 comdat align 2 {
  %2 = alloca ptr, align 8
  store ptr %0, ptr %2, align 8
  %3 = load ptr, ptr %2, align 8
  %4 = load i32, ptr @_ZN23java_lang_ref_Reference16_referent_offsetE, align 4
  call void @_ZN7oopDesc17obj_field_put_rawEiPS_(ptr noundef nonnull align 8 dereferenceable(16) %3, i32 noundef %4, ptr noundef null)
  ret void
}

; Function Attrs: mustprogress nounwind uwtable
define linkonce_odr hidden void @_ZN23java_lang_ref_Reference12set_next_rawEP7oopDescS1_(ptr noundef %0, ptr noundef %1) #1 comdat align 2 {
  %3 = alloca ptr, align 8
  %4 = alloca ptr, align 8
  store ptr %0, ptr %3, align 8
  store ptr %1, ptr %4, align 8
  %5 = load ptr, ptr %3, align 8
  %6 = load i32, ptr @_ZN23java_lang_ref_Reference12_next_offsetE, align 4
  %7 = load ptr, ptr %4, align 8
  call void @_ZN7oopDesc17obj_field_put_rawEiPS_(ptr noundef nonnull align 8 dereferenceable(16) %5, i32 noundef %6, ptr noundef %7)
  ret void
}

; Function Attrs: mustprogress nounwind uwtable
define internal void @_ZL24reference_clear_referentP7oopDesc(ptr noundef %0) #1 {
  %2 = alloca ptr, align 8
  store ptr %0, ptr %2, align 8
  %3 = load ptr, ptr %2, align 8
  call void @_ZN23java_lang_ref_Reference18clear_referent_rawEP7oopDesc(ptr noundef %3)
  ret void
}

; Function Attrs: mustprogress nounwind uwtable
define internal void @_ZL18reference_set_nextP7oopDescS0_(ptr noundef %0, ptr noundef %1) #1 {
  %3 = alloca ptr, align 8
  %4 = alloca ptr, align 8
  store ptr %0, ptr %3, align 8
  store ptr %1, ptr %4, align 8
  %5 = load ptr, ptr %3, align 8
  %6 = load ptr, ptr %4, align 8
  call void @_ZN23java_lang_ref_Reference12set_next_rawEP7oopDescS1_(ptr noundef %5, ptr noundef %6)
  ret void
}

; Function Attrs: mustprogress nounwind uwtable
define hidden void @_ZNK19XReferenceProcessor13make_inactiveEP7oopDesc13ReferenceType(ptr noundef nonnull align 8 dereferenceable(72) %0, ptr noundef %1, i32 noundef %2) #1 align 2 {
  %4 = alloca ptr, align 8
  %5 = alloca ptr, align 8
  %6 = alloca i32, align 4
  store ptr %0, ptr %4, align 8
  store ptr %1, ptr %5, align 8
  store i32 %2, ptr %6, align 4
  %7 = load i32, ptr %6, align 4
  %8 = icmp eq i32 %7, 3
  br i1 %8, label %9, label %12

9:                                                ; preds = %3
  %10 = load ptr, ptr %5, align 8
  %11 = load ptr, ptr %5, align 8
  call void @_ZL18reference_set_nextP7oopDescS0_(ptr noundef %10, ptr noundef %11)
  br label %14

12:                                               ; preds = %3
  %13 = load ptr, ptr %5, align 8
  call void @_ZL24reference_clear_referentP7oopDesc(ptr noundef %13)
  br label %14

14:                                               ; preds = %12, %9
  ret void
}