; Function Attrs: mustprogress nounwind uwtable
define hidden void @_ZNK19XReferenceProcessor13make_inactiveEP7oopDesc13ReferenceType(ptr nocapture noundef nonnull readnone align 8 dereferenceable(72) %0, ptr noundef nonnull %1, i32 noundef %2) local_unnamed_addr #1 align 2 {
  %4 = icmp eq i32 %2, 3
  %. = select i1 %4, ptr %1, ptr null
  %_ZN23java_lang_ref_Reference12_next_offsetE.val = load i32, ptr @_ZN23java_lang_ref_Reference12_next_offsetE, align 4
  %_ZN23java_lang_ref_Reference16_referent_offsetE.val = load i32, ptr @_ZN23java_lang_ref_Reference16_referent_offsetE, align 4
  %5 = select i1 %4, i32 %_ZN23java_lang_ref_Reference12_next_offsetE.val, i32 %_ZN23java_lang_ref_Reference16_referent_offsetE.val
  tail call void @_ZN7oopDesc17obj_field_put_rawEiPS_(ptr noundef nonnull align 8 dereferenceable(16) %1, i32 noundef %5, ptr noundef %.) #12
  ret void
}